ccopy_reg
_reconstructor
p1
(cnupic.frameworks.opf.clamodel
CLAModel
p2
c__builtin__
object
p3
NtRp4
(dp5
S'_CLAModel__numRunCalls'
p6
I0
sS'_predictedFieldIdx'
p7
NsS'_minLikelihoodThreshold'
p8
F0.0001
sS'_CLAModel__finishedLearning'
p9
I00
sS'_Model__inferenceType'
p10
S'TemporalAnomaly'
p11
sS'_Model__inferenceArgs'
p12
(dp13
S'predictedField'
p14
S'traffic'
p15
ssS'_netInfo'
p16
g1
(cnupic.frameworks.opf.clamodel
NetworkInfo
p17
g3
NtRp18
(dp19
S'net'
p20
NsS'statsCollectors'
p21
(lp22
sbsS'_hasCL'
p23
I01
sS'_hasSP'
p24
I01
sS'_classifierInputEncoder'
p25
NsS'_CLAModel__tpLearningEnabled'
p26
I01
sS'_Model__learningEnabled'
p27
I01
sS'_Model__inferenceEnabled'
p28
I01
sS'_anomalyInst'
p29
g1
(cnupic.algorithms.anomaly
Anomaly
p30
g3
NtRp31
(dp32
S'_movingAverage'
p33
NsS'_mode'
p34
S'pure'
p35
sbsS'_CLAModel__trainSPNetOnlyIfRequested'
p36
I00
sS'_numPredictions'
p37
I0
sS'_maxPredictionsPerStep'
p38
I8
sS'_input'
p39
NsS'_prevPredictedColumns'
p40
cnumpy.core.multiarray
_reconstruct
p41
(cnumpy
ndarray
p42
(I0
tS'b'
tRp43
(I1
(I0
tcnumpy
dtype
p44
(S'f8'
I0
I1
tRp45
(I3
S'<'
NNNI-1
I-1
I0
tbI00
S''
tbsS'_CLAModel__spLearningEnabled'
p46
I01
sS'_predictedFieldName'
p47
NsS'_hasTP'
p48
I01
sS'_numFields'
p49
NsS'_CLAModel__restoringFromV1'
p50
I00
sb.